(dp0
I1
(dp1
S'Hong'
p2
F0.018404907975460124
sS'United'
p3
F0.027607361963190184
sS'existing'
p4
F0.03680981595092025
sS'facts'
p5
F0.05214723926380368
sS'political'
p6
F0.006134969325153374
sS'However'
p7
F0.012269938650306749
sS'legal'
p8
F0.049079754601226995
sS'parents'
p9
F0.003067484662576687
sS'China'
p10
F0.009202453987730062
sS'development'
p11
F0.009202453987730062
sS'cadres'
p12
F0.003067484662576687
sS'wrong'
p13
F0.3312883435582822
sS'construction'
p14
F0.003067484662576687
sS'international'
p15
F0.03067484662576687
sS'The'
p16
F0.11349693251533742
sS'law'
p17
F0.049079754601226995
sS'Falungong'
p18
F0.009202453987730062
sS'All'
p19
F0.009202453987730062
sS'Chinese'
p20
F0.009202453987730062
sS'involved'
p21
F0.03680981595092025
sS'foreign'
p22
F0.003067484662576687
sS'Taiwan'
p23
F0.12269938650306748
sS'fact'
p24
F0.024539877300613498
sS'view'
p25
F0.03067484662576687
ssI2
(dp26
g3
F0.015957446808510637
sS'stability'
p27
F0.010638297872340425
sg5
F0.005319148936170213
sS'Marxism'
p28
F0.010638297872340425
sS'issues'
p29
F0.026595744680851064
sg6
F0.010638297872340425
sg10
F0.14361702127659576
sg15
F0.02127659574468085
sS'white'
p30
F0.05319148936170213
sS'correct'
p31
F0.005319148936170213
sS'This'
p32
F0.026595744680851064
sS'incident'
p33
F0.07446808510638298
sS'struggle'
p34
F0.005319148936170213
sg16
F0.0851063829787234
sg18
F0.015957446808510637
sg19
F0.010638297872340425
sg20
F0.09042553191489362
sg13
F0.14893617021276595
sg22
F0.03723404255319149
sS'teachers'
p35
F0.005319148936170213
sS'policies'
p36
F0.031914893617021274
sS'military'
p37
F0.0797872340425532
sg25
F0.005319148936170213
sg24
F0.015957446808510637
sS'black'
p38
F0.06382978723404255
ssI3
(dp39
S'firm'
p40
F0.04428044280442804
sS'major'
p41
F0.05166051660516605
sg27
F0.03690036900369004
sg28
F0.03690036900369004
sg29
F0.02214022140221402
sg6
F0.11070110701107011
sg7
F0.0036900369003690036
sg9
F0.007380073800738007
sS'party'
p42
F0.05166051660516605
sg30
F0.0036900369003690036
sg31
F0.04797047970479705
sg11
F0.0036900369003690036
sg32
F0.01107011070110701
sS'ideological'
p43
F0.07749077490774908
sg12
F0.04428044280442804
sg13
F0.18450184501845018
sg14
F0.007380073800738007
sg34
F0.04797047970479705
sS'situation'
p44
F0.05904059040590406
sg16
F0.0036900369003690036
sg18
F0.014760147601476014
sg19
F0.025830258302583026
sg20
F0.02952029520295203
sS'social'
p45
F0.05166051660516605
sg37
F0.0036900369003690036
sg24
F0.01845018450184502
ssI4
(dp46
g11
F0.08695652173913043
sg2
F0.021739130434782608
sS'rights'
p47
F0.14130434782608695
sg7
F0.20652173913043478
sg22
F0.13043478260869565
sg12
F0.010869565217391304
sg13
F0.17391304347826086
sg14
F0.09782608695652174
sg29
F0.03260869565217391
sg36
F0.06521739130434782
sg15
F0.010869565217391304
sg18
F0.021739130434782608
ssI5
(dp48
g47
F0.027777777777777776
sg32
F0.1111111111111111
sg21
F0.05555555555555555
sg9
F0.19444444444444445
sg13
F0.1111111111111111
sg38
F0.027777777777777776
sg34
F0.05555555555555555
sg43
F0.027777777777777776
sg15
F0.027777777777777776
sg30
F0.027777777777777776
sg25
F0.027777777777777776
sg35
F0.3055555555555556
ssI6
(dp49
g9
F0.6666666666666666
sg38
F0.3333333333333333
ss.